; ModuleID = 'source-C-CXX/6/43.c'
source_filename = "source-C-CXX/6/43.c"
target datalayout = "e-m:e-p270:32:32-p271:32:32-p272:64:64-i64:64-f80:128-n8:16:32:64-S128"
target triple = "x86_64-pc-linux-gnu"

@.str = private unnamed_addr constant [3 x i8] c"%s\00", align 1

; Function Attrs: nofree nounwind sspstrong uwtable
define dso_local i32 @main() local_unnamed_addr #0 {
  %1 = alloca [100 x i8], align 16
  %2 = alloca [100 x i8], align 16
  %3 = alloca [100 x i8], align 16
  %4 = getelementptr inbounds [100 x i8], [100 x i8]* %1, i64 0, i64 0
  call void @llvm.lifetime.start.p0i8(i64 100, i8* nonnull %4) #5
  %5 = getelementptr inbounds [100 x i8], [100 x i8]* %2, i64 0, i64 0
  call void @llvm.lifetime.start.p0i8(i64 100, i8* nonnull %5) #5
  %6 = getelementptr inbounds [100 x i8], [100 x i8]* %3, i64 0, i64 0
  call void @llvm.lifetime.start.p0i8(i64 100, i8* nonnull %6) #5
  %7 = call i32 (i8*, ...) @__isoc99_scanf(i8* getelementptr inbounds ([3 x i8], [3 x i8]* @.str, i64 0, i64 0), i8* nonnull %4)
  %8 = call i32 (i8*, ...) @__isoc99_scanf(i8* getelementptr inbounds ([3 x i8], [3 x i8]* @.str, i64 0, i64 0), i8* nonnull %5)
  %9 = call i32 (i8*, ...) @__isoc99_scanf(i8* getelementptr inbounds ([3 x i8], [3 x i8]* @.str, i64 0, i64 0), i8* nonnull %6)
  %10 = call i64 @strlen(i8* noundef nonnull %5) #6
  %11 = trunc i64 %10 to i32
  %12 = call i64 @strlen(i8* noundef nonnull %4) #6
  %13 = trunc i64 %12 to i32
  %14 = icmp eq i64 %12, 0
  br i1 %14, label %41, label %15

15:                                               ; preds = %0
  %16 = icmp eq i64 %10, 0
  br i1 %16, label %51, label %17

17:                                               ; preds = %15, %31
  %18 = phi i64 [ %32, %31 ], [ 0, %15 ]
  %19 = phi i1 [ %33, %31 ], [ true, %15 ]
  br label %22

20:                                               ; preds = %22
  %21 = icmp eq i64 %30, %10
  br i1 %21, label %35, label %22, !llvm.loop !5

22:                                               ; preds = %17, %20
  %23 = phi i64 [ 0, %17 ], [ %30, %20 ]
  %24 = getelementptr inbounds [100 x i8], [100 x i8]* %2, i64 0, i64 %23
  %25 = load i8, i8* %24, align 1, !tbaa !7
  %26 = add nuw nsw i64 %23, %18
  %27 = getelementptr inbounds [100 x i8], [100 x i8]* %1, i64 0, i64 %26
  %28 = load i8, i8* %27, align 1, !tbaa !7
  %29 = icmp eq i8 %25, %28
  %30 = add nuw i64 %23, 1
  br i1 %29, label %20, label %31

31:                                               ; preds = %22
  %32 = add nuw i64 %18, 1
  %33 = icmp ugt i64 %12, %32
  %34 = icmp eq i64 %32, %12
  br i1 %34, label %41, label %17, !llvm.loop !10

35:                                               ; preds = %20
  %36 = trunc i64 %18 to i32
  br i1 %19, label %37, label %41

37:                                               ; preds = %35
  %38 = icmp eq i32 %36, 0
  br i1 %38, label %51, label %39

39:                                               ; preds = %37
  %40 = and i64 %18, 4294967295
  br label %43

41:                                               ; preds = %31, %0, %35
  %42 = call i32 @puts(i8* nonnull %4)
  br label %70

43:                                               ; preds = %39, %43
  %44 = phi i64 [ 0, %39 ], [ %49, %43 ]
  %45 = getelementptr inbounds [100 x i8], [100 x i8]* %1, i64 0, i64 %44
  %46 = load i8, i8* %45, align 1, !tbaa !7
  %47 = sext i8 %46 to i32
  %48 = call i32 @putchar(i32 %47)
  %49 = add nuw nsw i64 %44, 1
  %50 = icmp eq i64 %49, %40
  br i1 %50, label %51, label %43, !llvm.loop !11

51:                                               ; preds = %43, %15, %37
  %52 = phi i32 [ 0, %37 ], [ 0, %15 ], [ %36, %43 ]
  %53 = call i32 (i8*, ...) @printf(i8* nonnull dereferenceable(1) getelementptr inbounds ([3 x i8], [3 x i8]* @.str, i64 0, i64 0), i8* nonnull %6)
  %54 = add i32 %52, %11
  %55 = icmp slt i32 %54, %13
  br i1 %55, label %56, label %68

56:                                               ; preds = %51
  %57 = sext i32 %54 to i64
  %58 = shl i64 %12, 32
  %59 = ashr exact i64 %58, 32
  br label %60

60:                                               ; preds = %56, %60
  %61 = phi i64 [ %57, %56 ], [ %66, %60 ]
  %62 = getelementptr inbounds [100 x i8], [100 x i8]* %1, i64 0, i64 %61
  %63 = load i8, i8* %62, align 1, !tbaa !7
  %64 = sext i8 %63 to i32
  %65 = call i32 @putchar(i32 %64)
  %66 = add nsw i64 %61, 1
  %67 = icmp slt i64 %66, %59
  br i1 %67, label %60, label %68, !llvm.loop !12

68:                                               ; preds = %60, %51
  %69 = call i32 @putchar(i32 10)
  br label %70

70:                                               ; preds = %68, %41
  call void @llvm.lifetime.end.p0i8(i64 100, i8* nonnull %6) #5
  call void @llvm.lifetime.end.p0i8(i64 100, i8* nonnull %5) #5
  call void @llvm.lifetime.end.p0i8(i64 100, i8* nonnull %4) #5
  ret i32 0
}

; Function Attrs: argmemonly mustprogress nofree nosync nounwind willreturn
declare void @llvm.lifetime.start.p0i8(i64 immarg, i8* nocapture) #1

; Function Attrs: nofree nounwind
declare noundef i32 @__isoc99_scanf(i8* nocapture noundef readonly, ...) local_unnamed_addr #2

; Function Attrs: argmemonly mustprogress nofree nounwind readonly willreturn
declare i64 @strlen(i8* nocapture) local_unnamed_addr #3

; Function Attrs: nofree nounwind
declare noundef i32 @printf(i8* nocapture noundef readonly, ...) local_unnamed_addr #2

; Function Attrs: argmemonly mustprogress nofree nosync nounwind willreturn
declare void @llvm.lifetime.end.p0i8(i64 immarg, i8* nocapture) #1

; Function Attrs: nofree nounwind
declare noundef i32 @putchar(i32 noundef) local_unnamed_addr #4

; Function Attrs: nofree nounwind
declare noundef i32 @puts(i8* nocapture noundef readonly) local_unnamed_addr #4


!llvm.module.flags = !{!0, !1, !2, !3}
!llvm.ident = !{!4}

!0 = !{i32 1, !"wchar_size", i32 4}
!1 = !{i32 7, !"PIC Level", i32 2}
!2 = !{i32 7, !"PIE Level", i32 2}
!3 = !{i32 7, !"uwtable", i32 1}
!4 = !{!"clang version 13.0.0"}
!5 = distinct !{!5, !6}
!6 = !{!"llvm.loop.mustprogress"}
!7 = !{!8, !8, i64 0}
!8 = !{!"omnipotent char", !9, i64 0}
!9 = !{!"Simple C/C++ TBAA"}
!10 = distinct !{!10, !6}
!11 = distinct !{!11, !6}
!12 = distinct !{!12, !6}
